target datalayout = "e-m:e-p270:32:32-p271:32:32-p272:64:64-i64:64-i128:128-f80:128-n8:16:32:64-S128"
target triple = "x86_64-pc-linux-gnu"

%struct.mbedtls_chacha20_context = type { [16 x i32], [64 x i8], i64 }

; Function Attrs: alwaysinline nounwind uwtable
define internal i32 @mbedtls_get_unaligned_uint32(ptr noundef %0) #2 {
  %2 = alloca ptr, align 8
  %3 = alloca i32, align 4
  store ptr %0, ptr %2, align 8, !tbaa !15
  call void @llvm.lifetime.start.p0(i64 4, ptr %3) #7
  %4 = load ptr, ptr %2, align 8, !tbaa !15
  call void @llvm.memcpy.p0.p0.i64(ptr align 4 %3, ptr align 1 %4, i64 4, i1 false)
  %5 = load i32, ptr %3, align 4, !tbaa !13
  call void @llvm.lifetime.end.p0(i64 4, ptr %3) #7
  ret i32 %5
}

; Function Attrs: nounwind uwtable
define hidden i32 @mbedtls_chacha20_starts(ptr noundef %0, ptr noundef %1, i32 noundef %2) #0 {
  %4 = alloca ptr, align 8
  %5 = alloca ptr, align 8
  %6 = alloca i32, align 4
  store ptr %0, ptr %4, align 8, !tbaa !3
  store ptr %1, ptr %5, align 8, !tbaa !11
  store i32 %2, ptr %6, align 4, !tbaa !13
  %7 = load i32, ptr %6, align 4, !tbaa !13
  %8 = load ptr, ptr %4, align 8, !tbaa !3
  %9 = getelementptr inbounds nuw %struct.mbedtls_chacha20_context, ptr %8, i32 0, i32 0
  %10 = getelementptr inbounds [16 x i32], ptr %9, i64 0, i64 12
  store i32 %7, ptr %10, align 8, !tbaa !13
  %11 = load ptr, ptr %5, align 8, !tbaa !11
  %12 = getelementptr inbounds i8, ptr %11, i64 0
  %13 = call i32 @mbedtls_get_unaligned_uint32(ptr noundef %12)
  %14 = load ptr, ptr %4, align 8, !tbaa !3
  %15 = getelementptr inbounds nuw %struct.mbedtls_chacha20_context, ptr %14, i32 0, i32 0
  %16 = getelementptr inbounds [16 x i32], ptr %15, i64 0, i64 13
  store i32 %13, ptr %16, align 4, !tbaa !13
  %17 = load ptr, ptr %5, align 8, !tbaa !11
  %18 = getelementptr inbounds i8, ptr %17, i64 4
  %19 = call i32 @mbedtls_get_unaligned_uint32(ptr noundef %18)
  %20 = load ptr, ptr %4, align 8, !tbaa !3
  %21 = getelementptr inbounds nuw %struct.mbedtls_chacha20_context, ptr %20, i32 0, i32 0
  %22 = getelementptr inbounds [16 x i32], ptr %21, i64 0, i64 14
  store i32 %19, ptr %22, align 8, !tbaa !13
  %23 = load ptr, ptr %5, align 8, !tbaa !11
  %24 = getelementptr inbounds i8, ptr %23, i64 8
  %25 = call i32 @mbedtls_get_unaligned_uint32(ptr noundef %24)
  %26 = load ptr, ptr %4, align 8, !tbaa !3
  %27 = getelementptr inbounds nuw %struct.mbedtls_chacha20_context, ptr %26, i32 0, i32 0
  %28 = getelementptr inbounds [16 x i32], ptr %27, i64 0, i64 15
  store i32 %25, ptr %28, align 4, !tbaa !13
  %29 = load ptr, ptr %4, align 8, !tbaa !3
  %30 = getelementptr inbounds nuw %struct.mbedtls_chacha20_context, ptr %29, i32 0, i32 1
  %31 = getelementptr inbounds [64 x i8], ptr %30, i64 0, i64 0
  call void @mbedtls_platform_zeroize(ptr noundef %31, i64 noundef 64)
  %32 = load ptr, ptr %4, align 8, !tbaa !3
  %33 = getelementptr inbounds nuw %struct.mbedtls_chacha20_context, ptr %32, i32 0, i32 2
  store i64 64, ptr %33, align 8, !tbaa !8
  ret i32 0
}