; Function Attrs: nounwind uwtable
define hidden noundef i32 @mbedtls_chacha20_starts(ptr noundef initializes((48, 64)) %0, ptr noundef readonly captures(none) %1, i32 noundef %2) local_unnamed_addr #0 {
  %4 = getelementptr inbounds nuw i8, ptr %0, i64 48
  store i32 %2, ptr %4, align 8, !tbaa !8
  %.0.copyload.i10 = load i32, ptr %1, align 1
  %5 = getelementptr inbounds nuw i8, ptr %0, i64 52
  store i32 %.0.copyload.i10, ptr %5, align 4, !tbaa !8
  %6 = getelementptr inbounds nuw i8, ptr %1, i64 4
  %.0.copyload.i9 = load i32, ptr %6, align 1
  %7 = getelementptr inbounds nuw i8, ptr %0, i64 56
  store i32 %.0.copyload.i9, ptr %7, align 8, !tbaa !8
  %8 = getelementptr inbounds nuw i8, ptr %1, i64 8
  %.0.copyload.i = load i32, ptr %8, align 1
  %9 = getelementptr inbounds nuw i8, ptr %0, i64 60
  store i32 %.0.copyload.i, ptr %9, align 4, !tbaa !8
  %10 = getelementptr inbounds nuw i8, ptr %0, i64 64
  tail call void @mbedtls_platform_zeroize(ptr noundef nonnull %10, i64 noundef 64) #10
  %11 = getelementptr inbounds nuw i8, ptr %0, i64 128
  store i64 64, ptr %11, align 8, !tbaa !3
  ret i32 0
}